; Function Attrs: nounwind uwtable
define internal fastcc i32 @fsm_set_and_search(ptr noundef %0, i64 %1, i16 noundef zeroext %2, i8 noundef zeroext %3, i8 noundef zeroext %4) unnamed_addr #0 {
  %6 = tail call fastcc i32 @fsm_readbuf(ptr noundef %0, i64 %1, i1 noundef zeroext true)
  tail call void @LockBuffer(i32 noundef %6, i32 noundef 2) #8
  %7 = icmp slt i32 %6, 0
  br i1 %7, label %8, label %14

8:                                                ; preds = %5
  %9 = load ptr, ptr @LocalBufferBlockPointers, align 8
  %10 = xor i32 %6, -1
  %11 = zext nneg i32 %10 to i64
  %12 = getelementptr inbounds nuw ptr, ptr %9, i64 %11
  %13 = load ptr, ptr %12, align 8
  br label %BufferGetPage.exit

14:                                               ; preds = %5
  %15 = load ptr, ptr @BufferBlocks, align 8
  %16 = add nsw i32 %6, -1
  %17 = sext i32 %16 to i64
  %18 = shl nsw i64 %17, 13
  %19 = getelementptr inbounds nuw i8, ptr %15, i64 %18
  br label %BufferGetPage.exit

BufferGetPage.exit:                               ; preds = %8, %14
  %.0.i.i = phi ptr [ %13, %8 ], [ %19, %14 ]
  %20 = zext i16 %2 to i32
  %21 = tail call zeroext i1 @fsm_set_avail(ptr noundef %.0.i.i, i32 noundef %20, i8 noundef zeroext %3) #8
  br i1 %21, label %22, label %23

22:                                               ; preds = %BufferGetPage.exit
  tail call void @MarkBufferDirtyHint(i32 noundef %6, i1 noundef zeroext false) #8
  br label %23

23:                                               ; preds = %22, %BufferGetPage.exit
  %.not = icmp eq i8 %4, 0
  br i1 %.not, label %28, label %24

24:                                               ; preds = %23
  %25 = and i64 %1, 4294967295
  %26 = icmp eq i64 %25, 0
  %27 = tail call i32 @fsm_search_avail(i32 noundef %6, i8 noundef zeroext %4, i1 noundef zeroext %26, i1 noundef zeroext true) #8
  br label %28

28:                                               ; preds = %24, %23
  %.0 = phi i32 [ %27, %24 ], [ -1, %23 ]
  tail call void @UnlockReleaseBuffer(i32 noundef %6) #8
  ret i32 %.0
}